target datalayout = "e-m:e-p270:32:32-p271:32:32-p272:64:64-i64:64-i128:128-f80:128-n8:16:32:64-S128"
target triple = "x86_64-pc-linux-gnu"

%struct.MvcCubeStruct = type { ptr, i32, i32, [1 x i32] }
%struct.MvcCoverStruct = type { i32, i32, i32, %struct.MvcListStruct, ptr, i32, ptr, ptr, ptr }
%struct.MvcListStruct = type { ptr, ptr, i32 }

; Function Attrs: nounwind uwtable
define ptr @Mvc_CoverCofactor(ptr noundef %0, i32 noundef %1, i32 noundef %2) #0 {
  %4 = alloca ptr, align 8
  %5 = alloca i32, align 4
  %6 = alloca i32, align 4
  %7 = alloca ptr, align 8
  %8 = alloca ptr, align 8
  %9 = alloca ptr, align 8
  %10 = alloca ptr, align 8
  store ptr %0, ptr %4, align 8, !tbaa !3
  store i32 %1, ptr %5, align 4, !tbaa !10
  store i32 %2, ptr %6, align 4, !tbaa !10
  call void @llvm.lifetime.start.p0(i64 8, ptr %7) #3
  call void @llvm.lifetime.start.p0(i64 8, ptr %8) #3
  call void @llvm.lifetime.start.p0(i64 8, ptr %9) #3
  %11 = load ptr, ptr %4, align 8, !tbaa !3
  %12 = call ptr @Mvc_CoverClone(ptr noundef %11)
  store ptr %12, ptr %7, align 8, !tbaa !3
  %13 = load ptr, ptr %4, align 8, !tbaa !3
  %14 = getelementptr inbounds nuw %struct.MvcCoverStruct, ptr %13, i32 0, i32 3
  %15 = getelementptr inbounds nuw %struct.MvcListStruct, ptr %14, i32 0, i32 0
  %16 = load ptr, ptr %15, align 8, !tbaa !14
  store ptr %16, ptr %8, align 8, !tbaa !8
  br label %17

17:                                               ; preds = %75, %3
  %18 = load ptr, ptr %8, align 8, !tbaa !8
  %19 = icmp ne ptr %18, null
  br i1 %19, label %20, label %79

20:                                               ; preds = %17
  %21 = load ptr, ptr %8, align 8, !tbaa !8
  %22 = getelementptr inbounds nuw %struct.MvcCubeStruct, ptr %21, i32 0, i32 3
  %23 = load i32, ptr %5, align 4, !tbaa !10
  %24 = ashr i32 %23, 5
  %25 = sext i32 %24 to i64
  %26 = getelementptr inbounds [1 x i32], ptr %22, i64 0, i64 %25
  %27 = load i32, ptr %26, align 4, !tbaa !10
  %28 = load i32, ptr %5, align 4, !tbaa !10
  %29 = and i32 %28, 31
  %30 = shl i32 1, %29
  %31 = and i32 %27, %30
  %32 = icmp ugt i32 %31, 0
  br i1 %32, label %33, label %74

33:                                               ; preds = %20
  %34 = load ptr, ptr %7, align 8, !tbaa !3
  %35 = load ptr, ptr %8, align 8, !tbaa !8
  %36 = call ptr @Mvc_CubeDup(ptr noundef %34, ptr noundef %35)
  store ptr %36, ptr %9, align 8, !tbaa !8
  call void @llvm.lifetime.start.p0(i64 8, ptr %10) #3
  %37 = load ptr, ptr %7, align 8, !tbaa !3
  %38 = getelementptr inbounds nuw %struct.MvcCoverStruct, ptr %37, i32 0, i32 3
  store ptr %38, ptr %10, align 8, !tbaa !36
  %39 = load ptr, ptr %10, align 8, !tbaa !36
  %40 = getelementptr inbounds nuw %struct.MvcListStruct, ptr %39, i32 0, i32 0
  %41 = load ptr, ptr %40, align 8, !tbaa !38
  %42 = icmp eq ptr %41, null
  br i1 %42, label %43, label %47

43:                                               ; preds = %33
  %44 = load ptr, ptr %9, align 8, !tbaa !8
  %45 = load ptr, ptr %10, align 8, !tbaa !36
  %46 = getelementptr inbounds nuw %struct.MvcListStruct, ptr %45, i32 0, i32 0
  store ptr %44, ptr %46, align 8, !tbaa !38
  br label %53

47:                                               ; preds = %33
  %48 = load ptr, ptr %9, align 8, !tbaa !8
  %49 = load ptr, ptr %10, align 8, !tbaa !36
  %50 = getelementptr inbounds nuw %struct.MvcListStruct, ptr %49, i32 0, i32 1
  %51 = load ptr, ptr %50, align 8, !tbaa !39
  %52 = getelementptr inbounds nuw %struct.MvcCubeStruct, ptr %51, i32 0, i32 0
  store ptr %48, ptr %52, align 8, !tbaa !21
  br label %53

53:                                               ; preds = %47, %43
  %54 = load ptr, ptr %9, align 8, !tbaa !8
  %55 = load ptr, ptr %10, align 8, !tbaa !36
  %56 = getelementptr inbounds nuw %struct.MvcListStruct, ptr %55, i32 0, i32 1
  store ptr %54, ptr %56, align 8, !tbaa !39
  %57 = load ptr, ptr %9, align 8, !tbaa !8
  %58 = getelementptr inbounds nuw %struct.MvcCubeStruct, ptr %57, i32 0, i32 0
  store ptr null, ptr %58, align 8, !tbaa !21
  %59 = load ptr, ptr %10, align 8, !tbaa !36
  %60 = getelementptr inbounds nuw %struct.MvcListStruct, ptr %59, i32 0, i32 2
  %61 = load i32, ptr %60, align 8, !tbaa !40
  %62 = add nsw i32 %61, 1
  store i32 %62, ptr %60, align 8, !tbaa !40
  call void @llvm.lifetime.end.p0(i64 8, ptr %10) #3
  %63 = load i32, ptr %6, align 4, !tbaa !10
  %64 = and i32 %63, 31
  %65 = shl i32 1, %64
  %66 = load ptr, ptr %9, align 8, !tbaa !8
  %67 = getelementptr inbounds nuw %struct.MvcCubeStruct, ptr %66, i32 0, i32 3
  %68 = load i32, ptr %6, align 4, !tbaa !10
  %69 = ashr i32 %68, 5
  %70 = sext i32 %69 to i64
  %71 = getelementptr inbounds [1 x i32], ptr %67, i64 0, i64 %70
  %72 = load i32, ptr %71, align 4, !tbaa !10
  %73 = or i32 %72, %65
  store i32 %73, ptr %71, align 4, !tbaa !10
  br label %74

74:                                               ; preds = %53, %20
  br label %75

75:                                               ; preds = %74
  %76 = load ptr, ptr %8, align 8, !tbaa !8
  %77 = getelementptr inbounds nuw %struct.MvcCubeStruct, ptr %76, i32 0, i32 0
  %78 = load ptr, ptr %77, align 8, !tbaa !21
  store ptr %78, ptr %8, align 8, !tbaa !8
  br label %17, !llvm.loop !62

79:                                               ; preds = %17
  %80 = load ptr, ptr %7, align 8, !tbaa !3
  call void @llvm.lifetime.end.p0(i64 8, ptr %9) #3
  call void @llvm.lifetime.end.p0(i64 8, ptr %8) #3
  call void @llvm.lifetime.end.p0(i64 8, ptr %7) #3
  ret ptr %80
}