; Function Attrs: nounwind uwtable
define ptr @Mvc_CoverCofactor(ptr noundef %0, i32 noundef %1, i32 noundef %2) local_unnamed_addr #1 {
  %4 = tail call ptr @Mvc_CoverClone(ptr noundef %0) #6
  %5 = getelementptr inbounds nuw i8, ptr %0, i64 16
  %.023 = load ptr, ptr %5, align 8, !tbaa !7
  %.not24 = icmp eq ptr %.023, null
  br i1 %.not24, label %._crit_edge, label %.lr.ph

.lr.ph:                                           ; preds = %3
  %6 = ashr i32 %1, 5
  %7 = sext i32 %6 to i64
  %8 = and i32 %1, 31
  %9 = shl nuw i32 1, %8
  %10 = getelementptr inbounds nuw i8, ptr %4, i64 16
  %11 = getelementptr inbounds nuw i8, ptr %4, i64 24
  %12 = getelementptr inbounds nuw i8, ptr %4, i64 32
  %13 = and i32 %2, 31
  %14 = shl nuw i32 1, %13
  %15 = ashr i32 %2, 5
  %16 = sext i32 %15 to i64
  br label %17

17:                                               ; preds = %.lr.ph, %36
  %.025 = phi ptr [ %.023, %.lr.ph ], [ %.0, %36 ]
  %18 = getelementptr inbounds nuw i8, ptr %.025, i64 16
  %19 = getelementptr inbounds [1 x i32], ptr %18, i64 0, i64 %7
  %20 = load i32, ptr %19, align 4, !tbaa !3
  %21 = and i32 %20, %9
  %.not22 = icmp eq i32 %21, 0
  br i1 %.not22, label %36, label %22

22:                                               ; preds = %17
  %23 = tail call ptr @Mvc_CubeDup(ptr noundef %4, ptr noundef nonnull %.025) #6
  %24 = load ptr, ptr %10, align 8, !tbaa !28
  %25 = icmp eq ptr %24, null
  br i1 %25, label %26, label %27

26:                                               ; preds = %22
  store ptr %23, ptr %10, align 8, !tbaa !28
  br label %29

27:                                               ; preds = %22
  %28 = load ptr, ptr %11, align 8, !tbaa !29
  store ptr %23, ptr %28, align 8, !tbaa !30
  br label %29

29:                                               ; preds = %27, %26
  store ptr %23, ptr %11, align 8, !tbaa !29
  store ptr null, ptr %23, align 8, !tbaa !30
  %30 = load i32, ptr %12, align 8, !tbaa !32
  %31 = add nsw i32 %30, 1
  store i32 %31, ptr %12, align 8, !tbaa !32
  %32 = getelementptr inbounds nuw i8, ptr %23, i64 16
  %33 = getelementptr inbounds [1 x i32], ptr %32, i64 0, i64 %16
  %34 = load i32, ptr %33, align 4, !tbaa !3
  %35 = or i32 %34, %14
  store i32 %35, ptr %33, align 4, !tbaa !3
  br label %36

36:                                               ; preds = %17, %29
  %.0 = load ptr, ptr %.025, align 8, !tbaa !7
  %.not = icmp eq ptr %.0, null
  br i1 %.not, label %._crit_edge, label %17, !llvm.loop !50

._crit_edge:                                      ; preds = %36, %3
  ret ptr %4
}